Certificate:
    Data:
        Version: 3 (0x2)
        Serial Number: 2 (0x2)
        Signature Algorithm: md5WithRSAEncryption
        Issuer: O=My Company, OU=Sample CA, L=My Town, ST=My State, C=US, CN=Sample CA
        Validity
            Not Before: Nov 23 20:23:28 2010 GMT
            Not After : Nov 20 20:23:28 2020 GMT
        Subject: C=US, ST=My State, O=My Company, OU=sec-wall, CN=localhost
        Subject Public Key Info:
            Public Key Algorithm: rsaEncryption
            RSA Public Key: (2048 bit)
                Modulus (2048 bit):
                    00:dc:ab:d2:11:e1:74:32:b4:3b:6c:89:fb:f0:cf:
                    7a:db:39:31:04:0a:d6:17:5a:b3:1d:93:b5:d3:2d:
                    bb:7e:e3:f9:4e:66:e0:63:14:f5:5d:67:58:61:42:
                    d5:98:67:7c:bc:98:f2:c2:d6:35:8e:63:c9:d0:7e:
                    96:34:70:23:97:6b:59:7c:61:d0:96:f8:b4:5f:e3:
                    11:60:d7:81:b2:2e:1e:fc:0b:30:a5:c9:f0:b9:77:
                    95:f8:ee:ce:7d:7b:3c:c0:ed:92:6a:00:dd:dd:37:
                    2d:25:82:49:ad:a7:24:e4:61:dd:02:36:06:0a:b4:
                    2e:07:7e:76:fe:63:77:c3:5a:fc:3f:39:30:0c:d1:
                    4b:3a:18:5c:c6:de:da:37:56:d2:95:3e:b0:89:53:
                    f7:f0:2b:c3:71:c5:2b:c4:e7:10:d6:93:6e:06:b2:
                    2b:f6:3e:aa:2b:38:09:04:71:c0:03:79:52:00:e1:
                    bf:7c:28:59:01:84:dd:e5:f5:82:30:38:59:53:44:
                    cf:01:f2:16:84:ed:ba:49:8f:e5:9c:c7:3f:bb:fd:
                    ca:df:4f:3b:ee:3e:14:88:e3:d9:a7:38:51:9e:e7:
                    63:62:0c:30:fb:83:e8:6a:ce:99:06:51:85:13:4f:
                    95:f3:2f:e1:61:18:fa:01:57:f1:ed:43:18:70:9d:
                    1e:cb
                Exponent: 65537 (0x10001)
        X509v3 extensions:
            X509v3 Basic Constraints: 
                CA:FALSE
            X509v3 Subject Key Identifier: 
                D0:21:77:04:FF:FD:15:16:F0:4F:77:03:AC:03:15:CA:48:64:7E:C5
            X509v3 Extended Key Usage: 
                TLS Web Server Authentication, TLS Web Client Authentication
    Signature Algorithm: md5WithRSAEncryption
        8f:b7:cd:f0:23:1e:cf:03:8f:5c:49:05:d3:59:84:08:18:1c:
        15:8d:1b:e9:70:a5:85:8f:fa:94:2e:6f:1f:36:47:08:b5:da:
        e0:62:af:6e:6c:5c:4e:30:01:1a:bf:7f:55:65:49:c4:67:78:
        d4:3d:43:2c:f5:d7:b7:54:5b:f2:f1:b1:1b:af:44:e1:53:e0:
        e8:ed:9a:d3:0f:c0:7a:ea:85:2c:6b:56:fc:24:89:9f:b4:8c:
        44:ea:a8:67:d0:6b:d1:e4:9a:ea:5c:a8:63:cd:fe:da:18:ee:
        f2:68:a0:78:38:0e:ac:a9:55:62:5b:ab:bb:1b:48:d4:2c:23:
        8e:34:37:e4:3a:ef:ba:5f:52:f5:fd:94:4c:c9:69:06:2a:45:
        f9:0a:bb:88:f1:e8:41:6d:1a:1e:44:98:90:64:d2:68:01:27:
        0d:81:4d:db:b9:96:f7:d5:e5:6e:13:2e:65:92:c4:3f:bf:52:
        14:d3:b4:5b:28:48:2f:82:92:59:f1:84:5a:93:b3:4d:95:a2:
        33:87:61:9b:e2:8e:d3:23:3b:30:88:84:e2:8b:eb:b3:fe:48:
        b7:14:11:cb:f9:d6:00:c3:d0:6d:05:fc:e1:06:28:95:8f:93:
        7b:66:01:e5:00:4d:bf:95:d8:56:40:12:8b:b5:e9:09:b6:c4:
        0d:78:46:f1
-----BEGIN CERTIFICATE-----
MIIDkTCCAnmgAwIBAgIBAjANBgkqhkiG9w0BAQQFADBvMRMwEQYDVQQKEwpNeSBD
b21wYW55MRIwEAYDVQQLEwlTYW1wbGUgQ0ExEDAOBgNVBAcTB015IFRvd24xETAP
BgNVBAgTCE15IFN0YXRlMQswCQYDVQQGEwJVUzESMBAGA1UEAxMJU2FtcGxlIENB
MB4XDTEwMTEyMzIwMjMyOFoXDTIwMTEyMDIwMjMyOFowXDELMAkGA1UEBhMCVVMx
ETAPBgNVBAgTCE15IFN0YXRlMRMwEQYDVQQKEwpNeSBDb21wYW55MREwDwYDVQQL
EwhzZWMtd2FsbDESMBAGA1UEAxMJbG9jYWxob3N0MIIBIjANBgkqhkiG9w0BAQEF
AAOCAQ8AMIIBCgKCAQEA3KvSEeF0MrQ7bIn78M962zkxBArWF1qzHZO10y27fuP5
TmbgYxT1XWdYYULVmGd8vJjywtY1jmPJ0H6WNHAjl2tZfGHQlvi0X+MRYNeBsi4e
/AswpcnwuXeV+O7OfXs8wO2SagDd3TctJYJJrack5GHdAjYGCrQuB352/mN3w1r8
PzkwDNFLOhhcxt7aN1bSlT6wiVP38CvDccUrxOcQ1pNuBrIr9j6qKzgJBHHAA3lS
AOG/fChZAYTd5fWCMDhZU0TPAfIWhO26SY/lnMc/u/3K30877j4UiOPZpzhRnudj
Ygww+4Poas6ZBlGFE0+V8y/hYRj6AVfx7UMYcJ0eywIDAQABo0swSTAJBgNVHRME
AjAAMB0GA1UdDgQWBBTQIXcE//0VFvBPdwOsAxXKSGR+xTAdBgNVHSUEFjAUBggr
BgEFBQcDAQYIKwYBBQUHAwIwDQYJKoZIhvcNAQEEBQADggEBAI+3zfAjHs8Dj1xJ
BdNZhAgYHBWNG+lwpYWP+pQubx82Rwi12uBir25sXE4wARq/f1VlScRneNQ9Qyz1
17dUW/LxsRuvROFT4OjtmtMPwHrqhSxrVvwkiZ+0jETqqGfQa9HkmupcqGPN/toY
7vJooHg4DqypVWJbq7sbSNQsI440N+Q677pfUvX9lEzJaQYqRfkKu4jx6EFtGh5E
mJBk0mgBJw2BTdu5lvfV5W4TLmWSxD+/UhTTtFsoSC+CklnxhFqTs02VojOHYZvi
jtMjOzCIhOKL67P+SLcUEcv51gDD0G0F/OEGKJWPk3tmAeUATb+V2FZAEou16Qm2
xA14RvE=
-----END CERTIFICATE-----
